target datalayout = "e-m:e-p270:32:32-p271:32:32-p272:64:64-i64:64-i128:128-f80:128-n8:16:32:64-S128"
target triple = "x86_64-pc-linux-gnu"

%struct._zval_struct = type { %union._zend_value, %union.anon.3, %union.anon.6 }
%union._zend_value = type { i64 }
%union.anon.3 = type { i32 }
%union.anon.6 = type { i32 }
%struct._zend_execute_data = type { ptr, ptr, ptr, ptr, %struct._zval_struct, ptr, ptr, ptr, ptr }

; Function Attrs: nounwind uwtable
define hidden void @zif_filesize(ptr noundef %0, ptr noundef %1) #0 {
  %3 = alloca ptr, align 8
  %4 = alloca ptr, align 8
  %5 = alloca i1, align 1
  %6 = alloca ptr, align 8
  %7 = alloca ptr, align 8
  %8 = alloca i8, align 1
  %9 = alloca i32, align 4
  %10 = alloca i8, align 1
  %11 = alloca ptr, align 8
  %12 = alloca ptr, align 8
  %13 = alloca i8, align 1
  %14 = alloca i32, align 4
  %15 = alloca ptr, align 8
  %16 = alloca ptr, align 8
  %17 = alloca ptr, align 8
  %18 = alloca i32, align 4
  %19 = alloca i32, align 4
  %20 = alloca i32, align 4
  %21 = alloca i32, align 4
  %22 = alloca i32, align 4
  %23 = alloca ptr, align 8
  %24 = alloca ptr, align 8
  %25 = alloca i32, align 4
  %26 = alloca ptr, align 8
  %27 = alloca i8, align 1
  %28 = alloca i8, align 1
  %29 = alloca i32, align 4
  store ptr %0, ptr %15, align 8
  store ptr %1, ptr %16, align 8
  br label %30

30:                                               ; preds = %2
  store i32 0, ptr %18, align 4
  store i32 1, ptr %19, align 4
  store i32 1, ptr %20, align 4
  %31 = load ptr, ptr %15, align 8
  %32 = getelementptr inbounds %struct._zend_execute_data, ptr %31, i32 0, i32 4
  %33 = getelementptr inbounds %struct._zval_struct, ptr %32, i32 0, i32 2
  %34 = load i32, ptr %33, align 4
  store i32 %34, ptr %21, align 4
  store i32 0, ptr %22, align 4
  store ptr null, ptr %24, align 8
  store i32 0, ptr %25, align 4
  store ptr null, ptr %26, align 8
  store i8 0, ptr %27, align 1
  store i8 0, ptr %28, align 1
  store i32 0, ptr %29, align 4
  br label %35

35:                                               ; preds = %30
  %36 = load i32, ptr %21, align 4
  %37 = load i32, ptr %19, align 4
  %38 = icmp ult i32 %36, %37
  %39 = xor i1 %38, true
  %40 = xor i1 %39, true
  %41 = zext i1 %40 to i32
  %42 = sext i32 %41 to i64
  %43 = icmp ne i64 %42, 0
  br i1 %43, label %53, label %44

44:                                               ; preds = %35
  %45 = load i32, ptr %21, align 4
  %46 = load i32, ptr %20, align 4
  %47 = icmp ugt i32 %45, %46
  %48 = xor i1 %47, true
  %49 = xor i1 %48, true
  %50 = zext i1 %49 to i32
  %51 = sext i32 %50 to i64
  %52 = icmp ne i64 %51, 0
  br i1 %52, label %53, label %56

53:                                               ; preds = %44, %35
  %54 = load i32, ptr %19, align 4
  %55 = load i32, ptr %20, align 4
  call void @zend_wrong_parameters_count_error(i32 noundef %54, i32 noundef %55)
  store i32 1, ptr %29, align 4
  br label %160

56:                                               ; preds = %44
  %57 = load ptr, ptr %15, align 8
  %58 = getelementptr inbounds %struct._zval_struct, ptr %57, i64 4
  store ptr %58, ptr %23, align 8
  %59 = load i32, ptr %22, align 4
  %60 = add i32 %59, 1
  store i32 %60, ptr %22, align 4
  %61 = load i32, ptr %22, align 4
  %62 = load i32, ptr %19, align 4
  %63 = icmp ule i32 %61, %62
  br i1 %63, label %69, label %64

64:                                               ; preds = %56
  %65 = load i8, ptr %28, align 1
  %66 = trunc i8 %65 to i1
  %67 = zext i1 %66 to i32
  %68 = icmp eq i32 %67, 1
  br label %69

69:                                               ; preds = %64, %56
  %70 = phi i1 [ true, %56 ], [ %68, %64 ]
  call void @llvm.assume(i1 %70)
  %71 = load i32, ptr %22, align 4
  %72 = load i32, ptr %19, align 4
  %73 = icmp ugt i32 %71, %72
  br i1 %73, label %79, label %74

74:                                               ; preds = %69
  %75 = load i8, ptr %28, align 1
  %76 = trunc i8 %75 to i1
  %77 = zext i1 %76 to i32
  %78 = icmp eq i32 %77, 0
  br label %79

79:                                               ; preds = %74, %69
  %80 = phi i1 [ true, %69 ], [ %78, %74 ]
  call void @llvm.assume(i1 %80)
  %81 = load i8, ptr %28, align 1
  %82 = trunc i8 %81 to i1
  br i1 %82, label %83, label %94

83:                                               ; preds = %79
  %84 = load i32, ptr %22, align 4
  %85 = load i32, ptr %21, align 4
  %86 = icmp ugt i32 %84, %85
  %87 = xor i1 %86, true
  %88 = xor i1 %87, true
  %89 = zext i1 %88 to i32
  %90 = sext i32 %89 to i64
  %91 = icmp ne i64 %90, 0
  br i1 %91, label %92, label %93

92:                                               ; preds = %83
  br label %160

93:                                               ; preds = %83
  br label %94

94:                                               ; preds = %93, %79
  %95 = load ptr, ptr %23, align 8
  %96 = getelementptr inbounds %struct._zval_struct, ptr %95, i32 1
  store ptr %96, ptr %23, align 8
  %97 = load ptr, ptr %23, align 8
  store ptr %97, ptr %24, align 8
  %98 = load ptr, ptr %24, align 8
  %99 = load i32, ptr %22, align 4
  store ptr %98, ptr %11, align 8
  store ptr %17, ptr %12, align 8
  store i8 0, ptr %13, align 1
  store i32 %99, ptr %14, align 4
  %100 = load ptr, ptr %11, align 8
  %101 = load ptr, ptr %12, align 8
  %102 = load i8, ptr %13, align 1
  %103 = trunc i8 %102 to i1
  %104 = load i32, ptr %14, align 4
  store ptr %100, ptr %6, align 8
  store ptr %101, ptr %7, align 8
  %105 = zext i1 %103 to i8
  store i8 %105, ptr %8, align 1
  store i32 %104, ptr %9, align 4
  store i8 0, ptr %10, align 1
  %106 = load ptr, ptr %6, align 8
  store ptr %106, ptr %3, align 8
  %107 = load ptr, ptr %3, align 8
  %108 = getelementptr inbounds %struct._zval_struct, ptr %107, i32 0, i32 1
  %109 = load i8, ptr %108, align 8
  %110 = zext i8 %109 to i32
  %111 = icmp eq i32 %110, 6
  br i1 %111, label %112, label %116

112:                                              ; preds = %94
  %113 = load ptr, ptr %6, align 8
  %114 = load ptr, ptr %113, align 8
  %115 = load ptr, ptr %7, align 8
  store ptr %114, ptr %115, align 8
  br label %141

116:                                              ; preds = %94
  %117 = load i8, ptr %8, align 1
  %118 = trunc i8 %117 to i1
  br i1 %118, label %119, label %128

119:                                              ; preds = %116
  %120 = load ptr, ptr %6, align 8
  store ptr %120, ptr %4, align 8
  %121 = load ptr, ptr %4, align 8
  %122 = getelementptr inbounds %struct._zval_struct, ptr %121, i32 0, i32 1
  %123 = load i8, ptr %122, align 8
  %124 = zext i8 %123 to i32
  %125 = icmp eq i32 %124, 1
  br i1 %125, label %126, label %128

126:                                              ; preds = %119
  %127 = load ptr, ptr %7, align 8
  store ptr null, ptr %127, align 8
  br label %141

128:                                              ; preds = %119, %116
  %129 = load i8, ptr %10, align 1
  %130 = trunc i8 %129 to i1
  br i1 %130, label %131, label %136

131:                                              ; preds = %128
  %132 = load ptr, ptr %6, align 8
  %133 = load ptr, ptr %7, align 8
  %134 = load i32, ptr %9, align 4
  %135 = call zeroext i1 @zend_flf_parse_arg_str_slow(ptr noundef %132, ptr noundef %133, i32 noundef %134) #10
  store i1 %135, ptr %5, align 1
  br label %142

136:                                              ; preds = %128
  %137 = load ptr, ptr %6, align 8
  %138 = load ptr, ptr %7, align 8
  %139 = load i32, ptr %9, align 4
  %140 = call zeroext i1 @zend_parse_arg_str_slow(ptr noundef %137, ptr noundef %138, i32 noundef %139) #10
  store i1 %140, ptr %5, align 1
  br label %142

141:                                              ; preds = %126, %112
  store i1 true, ptr %5, align 1
  br label %142

142:                                              ; preds = %141, %136, %131
  %143 = load i1, ptr %5, align 1
  %144 = xor i1 %143, true
  %145 = xor i1 %144, true
  %146 = xor i1 %145, true
  %147 = zext i1 %146 to i32
  %148 = sext i32 %147 to i64
  %149 = icmp ne i64 %148, 0
  br i1 %149, label %150, label %151

150:                                              ; preds = %142
  store i32 4, ptr %25, align 4
  store i32 9, ptr %29, align 4
  br label %160

151:                                              ; preds = %142
  %152 = load i32, ptr %22, align 4
  %153 = load i32, ptr %20, align 4
  %154 = icmp eq i32 %152, %153
  br i1 %154, label %158, label %155

155:                                              ; preds = %151
  %156 = load i32, ptr %20, align 4
  %157 = icmp eq i32 %156, -1
  br label %158

158:                                              ; preds = %155, %151
  %159 = phi i1 [ true, %151 ], [ %157, %155 ]
  call void @llvm.assume(i1 %159)
  br label %160

160:                                              ; preds = %158, %150, %92, %53
  %161 = load i32, ptr %29, align 4
  %162 = icmp ne i32 %161, 0
  %163 = xor i1 %162, true
  %164 = xor i1 %163, true
  %165 = zext i1 %164 to i32
  %166 = sext i32 %165 to i64
  %167 = icmp ne i64 %166, 0
  br i1 %167, label %168, label %174

168:                                              ; preds = %160
  %169 = load i32, ptr %29, align 4
  %170 = load i32, ptr %22, align 4
  %171 = load ptr, ptr %26, align 8
  %172 = load i32, ptr %25, align 4
  %173 = load ptr, ptr %24, align 8
  call void @zend_wrong_parameter_error(i32 noundef %169, i32 noundef %170, ptr noundef %171, i32 noundef %172, ptr noundef %173)
  br label %178

174:                                              ; preds = %160
  br label %175

175:                                              ; preds = %174
  %176 = load ptr, ptr %17, align 8
  %177 = load ptr, ptr %16, align 8
  call void @php_stat(ptr noundef %176, i32 noundef 2, ptr noundef %177)
  br label %178

178:                                              ; preds = %175, %168
  ret void
}